target datalayout = "e-m:e-p270:32:32-p271:32:32-p272:64:64-i64:64-i128:128-f80:128-n8:16:32:64-S128"
target triple = "x86_64-pc-linux-gnu"

%struct.rb_code_location_struct = type { %struct.rb_code_position_struct, %struct.rb_code_position_struct }
%struct.rb_code_position_struct = type { i32, i32 }
%struct.RNode = type { i64, %struct.rb_code_location_struct, i32 }
%struct.rb_node_and_t = type { %struct.RNode, ptr, ptr, %struct.rb_code_location_struct }
%struct.RNode_IF = type { %struct.RNode, ptr, ptr, ptr, %struct.rb_code_location_struct, %struct.rb_code_location_struct, %struct.rb_code_location_struct }

; Function Attrs: nounwind sspstrong uwtable
define internal i32 @all_string_result_p(ptr noundef %0) #0 {
  %2 = alloca i32, align 4
  %3 = alloca ptr, align 8
  store ptr %0, ptr %3, align 8, !tbaa !73
  %4 = load ptr, ptr %3, align 8, !tbaa !73
  %5 = icmp ne ptr %4, null
  br i1 %5, label %7, label %6

6:                                                ; preds = %1
  store i32 0, ptr %2, align 4
  br label %61

7:                                                ; preds = %1
  %8 = load ptr, ptr %3, align 8, !tbaa !73
  %9 = getelementptr inbounds nuw %struct.RNode, ptr %8, i32 0, i32 0
  %10 = load i64, ptr %9, align 8, !tbaa !104
  %11 = and i64 %10, 32512
  %12 = lshr i64 %11, 8
  %13 = trunc i64 %12 to i32
  switch i32 %13, label %60 [
    i32 63, label %14
    i32 64, label %14
    i32 110, label %14
    i32 2, label %15
    i32 3, label %15
    i32 22, label %38
    i32 23, label %38
  ]

14:                                               ; preds = %7, %7, %7
  store i32 1, ptr %2, align 4
  br label %61

15:                                               ; preds = %7, %7
  %16 = load ptr, ptr %3, align 8, !tbaa !73
  %17 = getelementptr inbounds nuw %struct.RNode_IF, ptr %16, i32 0, i32 2
  %18 = load ptr, ptr %17, align 8, !tbaa !1011
  %19 = icmp ne ptr %18, null
  br i1 %19, label %20, label %25

20:                                               ; preds = %15
  %21 = load ptr, ptr %3, align 8, !tbaa !73
  %22 = getelementptr inbounds nuw %struct.RNode_IF, ptr %21, i32 0, i32 3
  %23 = load ptr, ptr %22, align 8, !tbaa !1015
  %24 = icmp ne ptr %23, null
  br i1 %24, label %26, label %25

25:                                               ; preds = %20, %15
  store i32 0, ptr %2, align 4
  br label %61

26:                                               ; preds = %20
  %27 = load ptr, ptr %3, align 8, !tbaa !73
  %28 = getelementptr inbounds nuw %struct.RNode_IF, ptr %27, i32 0, i32 2
  %29 = load ptr, ptr %28, align 8, !tbaa !1011
  %30 = call i32 @all_string_result_p(ptr noundef %29)
  %31 = icmp ne i32 %30, 0
  br i1 %31, label %32, label %37

32:                                               ; preds = %26
  %33 = load ptr, ptr %3, align 8, !tbaa !73
  %34 = getelementptr inbounds nuw %struct.RNode_IF, ptr %33, i32 0, i32 3
  %35 = load ptr, ptr %34, align 8, !tbaa !1015
  %36 = call i32 @all_string_result_p(ptr noundef %35)
  store i32 %36, ptr %2, align 4
  br label %61

37:                                               ; preds = %26
  store i32 0, ptr %2, align 4
  br label %61

38:                                               ; preds = %7, %7
  %39 = load ptr, ptr %3, align 8, !tbaa !73
  %40 = getelementptr inbounds nuw %struct.rb_node_and_t, ptr %39, i32 0, i32 2
  %41 = load ptr, ptr %40, align 8, !tbaa !927
  %42 = icmp ne ptr %41, null
  br i1 %42, label %48, label %43

43:                                               ; preds = %38
  %44 = load ptr, ptr %3, align 8, !tbaa !73
  %45 = getelementptr inbounds nuw %struct.rb_node_and_t, ptr %44, i32 0, i32 1
  %46 = load ptr, ptr %45, align 8, !tbaa !925
  %47 = call i32 @all_string_result_p(ptr noundef %46)
  store i32 %47, ptr %2, align 4
  br label %61

48:                                               ; preds = %38
  %49 = load ptr, ptr %3, align 8, !tbaa !73
  %50 = getelementptr inbounds nuw %struct.rb_node_and_t, ptr %49, i32 0, i32 1
  %51 = load ptr, ptr %50, align 8, !tbaa !925
  %52 = call i32 @all_string_result_p(ptr noundef %51)
  %53 = icmp ne i32 %52, 0
  br i1 %53, label %55, label %54

54:                                               ; preds = %48
  store i32 0, ptr %2, align 4
  br label %61

55:                                               ; preds = %48
  %56 = load ptr, ptr %3, align 8, !tbaa !73
  %57 = getelementptr inbounds nuw %struct.rb_node_and_t, ptr %56, i32 0, i32 2
  %58 = load ptr, ptr %57, align 8, !tbaa !927
  %59 = call i32 @all_string_result_p(ptr noundef %58)
  store i32 %59, ptr %2, align 4
  br label %61

60:                                               ; preds = %7
  store i32 0, ptr %2, align 4
  br label %61

61:                                               ; preds = %60, %55, %54, %43, %37, %32, %25, %14, %6
  %62 = load i32, ptr %2, align 4
  ret i32 %62
}