; Function Attrs: nofree nosync nounwind sspstrong memory(read, inaccessiblemem: none) uwtable
define internal fastcc range(i32 0, 2) i32 @all_string_result_p(ptr noundef readonly captures(address_is_null) %0) unnamed_addr #28 {
  %.not17 = icmp eq ptr %0, null
  br i1 %.not17, label %.loopexit, label %.lr.ph

.lr.ph:                                           ; preds = %1, %tailrecurse.backedge
  %.tr18 = phi ptr [ %.tr.be, %tailrecurse.backedge ], [ %0, %1 ]
  %2 = load i64, ptr %.tr18, align 8, !tbaa !169
  %3 = trunc i64 %2 to i32
  %4 = lshr i32 %3, 8
  %5 = and i32 %4, 127
  switch i32 %5, label %.loopexit [
    i32 63, label %.loopexit.loopexit
    i32 64, label %.loopexit.loopexit
    i32 110, label %.loopexit.loopexit
    i32 2, label %6
    i32 3, label %6
    i32 22, label %14
    i32 23, label %14
  ]

6:                                                ; preds = %.lr.ph, %.lr.ph
  %7 = getelementptr inbounds nuw i8, ptr %.tr18, i64 40
  %8 = load ptr, ptr %7, align 8, !tbaa !1049
  %.not14 = icmp eq ptr %8, null
  br i1 %.not14, label %.loopexit, label %9

9:                                                ; preds = %6
  %10 = getelementptr inbounds nuw i8, ptr %.tr18, i64 48
  %11 = load ptr, ptr %10, align 8, !tbaa !1092
  %.not15 = icmp eq ptr %11, null
  br i1 %.not15, label %.loopexit, label %12

12:                                               ; preds = %9
  %13 = tail call fastcc i32 @all_string_result_p(ptr noundef nonnull %8)
  %.not16 = icmp eq i32 %13, 0
  br i1 %.not16, label %.loopexit, label %tailrecurse.backedge

14:                                               ; preds = %.lr.ph, %.lr.ph
  %15 = getelementptr inbounds nuw i8, ptr %.tr18, i64 40
  %16 = load ptr, ptr %15, align 8, !tbaa !760
  %.not12 = icmp eq ptr %16, null
  %17 = getelementptr inbounds nuw i8, ptr %.tr18, i64 32
  %18 = load ptr, ptr %17, align 8, !tbaa !758
  br i1 %.not12, label %tailrecurse.backedge, label %19

tailrecurse.backedge:                             ; preds = %14, %12, %19
  %.tr.be = phi ptr [ %11, %12 ], [ %16, %19 ], [ %18, %14 ]
  %.not = icmp eq ptr %.tr.be, null
  br i1 %.not, label %.loopexit, label %.lr.ph

19:                                               ; preds = %14
  %20 = tail call fastcc i32 @all_string_result_p(ptr noundef %18)
  %.not13 = icmp eq i32 %20, 0
  br i1 %.not13, label %.loopexit, label %tailrecurse.backedge

.loopexit.loopexit:                               ; preds = %.lr.ph, %.lr.ph, %.lr.ph
  br label %.loopexit

.loopexit:                                        ; preds = %tailrecurse.backedge, %9, %6, %12, %19, %.lr.ph, %.loopexit.loopexit, %1
  %.0 = phi i32 [ 0, %1 ], [ 1, %.loopexit.loopexit ], [ 0, %.lr.ph ], [ 0, %19 ], [ 0, %12 ], [ 0, %6 ], [ 0, %9 ], [ 0, %tailrecurse.backedge ]
  ret i32 %.0
}